	.section	__TEXT,__text,regular,pure_instructions
	.build_version macos, 11, 0
	.p2align	2
__ZN3std10sys_common9backtrace28__rust_begin_short_backtrace17hcc799a4561a0c52cE:
	.cfi_startproc
	sub	sp, sp, #32
	.cfi_def_cfa_offset 32
	stp	x29, x30, [sp, #16]
	add	x29, sp, #16
	.cfi_def_cfa w29, 16
	.cfi_offset w30, -8
	.cfi_offset w29, -16
	bl	__ZN4core3ops8function6FnOnce9call_once17hf7a560ef3937f06fE
	; InlineAsm Start
	; InlineAsm End
	b	LBB0_1
LBB0_1:
	.cfi_def_cfa wsp, 32
	ldp	x29, x30, [sp, #16]
	add	sp, sp, #32
	.cfi_def_cfa_offset 0
	.cfi_restore w30
	.cfi_restore w29
	ret
	.cfi_endproc

	.private_extern	__ZN3std2rt10lang_start17hb914d2c8ed180aa5E
	.globl	__ZN3std2rt10lang_start17hb914d2c8ed180aa5E
	.p2align	2
__ZN3std2rt10lang_start17hb914d2c8ed180aa5E:
	.cfi_startproc
	sub	sp, sp, #48
	.cfi_def_cfa_offset 48
	stp	x29, x30, [sp, #32]
	add	x29, sp, #32
	.cfi_def_cfa w29, 16
	.cfi_offset w30, -8
	.cfi_offset w29, -16
	mov	x8, x0
	str	x1, [sp]
	mov	x0, x2
	ldr	x2, [sp]
	str	x0, [sp, #8]
	mov	x4, x3
	ldr	x3, [sp, #8]
	sub	x0, x29, #8
	stur	x8, [x29, #-8]
	adrp	x1, l___unnamed_1@PAGE
	add	x1, x1, l___unnamed_1@PAGEOFF
	bl	__ZN3std2rt19lang_start_internal17h91996717d3eb1d2aE
	str	x0, [sp, #16]
	ldr	x0, [sp, #16]
	.cfi_def_cfa wsp, 48
	ldp	x29, x30, [sp, #32]
	add	sp, sp, #48
	.cfi_def_cfa_offset 0
	.cfi_restore w30
	.cfi_restore w29
	ret
	.cfi_endproc

	.p2align	2
__ZN3std2rt10lang_start28_$u7b$$u7b$closure$u7d$$u7d$17hef1c1ac2fa91f7baE:
	.cfi_startproc
	sub	sp, sp, #32
	.cfi_def_cfa_offset 32
	stp	x29, x30, [sp, #16]
	add	x29, sp, #16
	.cfi_def_cfa w29, 16
	.cfi_offset w30, -8
	.cfi_offset w29, -16
	ldr	x0, [x0]
	bl	__ZN3std10sys_common9backtrace28__rust_begin_short_backtrace17hcc799a4561a0c52cE
	bl	__ZN54_$LT$$LP$$RP$$u20$as$u20$std..process..Termination$GT$6report17hba0918006791e144E
	sturb	w0, [x29, #-1]
	ldurb	w0, [x29, #-1]
	.cfi_def_cfa wsp, 32
	ldp	x29, x30, [sp, #16]
	add	sp, sp, #32
	.cfi_def_cfa_offset 0
	.cfi_restore w30
	.cfi_restore w29
	ret
	.cfi_endproc

	.p2align	2
__ZN4core3ops8function6FnOnce40call_once$u7b$$u7b$vtable.shim$u7d$$u7d$17hc66c25e2e25345fcE:
	.cfi_startproc
	sub	sp, sp, #32
	.cfi_def_cfa_offset 32
	stp	x29, x30, [sp, #16]
	add	x29, sp, #16
	.cfi_def_cfa w29, 16
	.cfi_offset w30, -8
	.cfi_offset w29, -16
	ldr	x0, [x0]
	bl	__ZN4core3ops8function6FnOnce9call_once17h263851872fdfab25E
	.cfi_def_cfa wsp, 32
	ldp	x29, x30, [sp, #16]
	add	sp, sp, #32
	.cfi_def_cfa_offset 0
	.cfi_restore w30
	.cfi_restore w29
	ret
	.cfi_endproc

	.p2align	2
__ZN4core3ops8function6FnOnce9call_once17h263851872fdfab25E:
Lfunc_begin0:
	.cfi_startproc
	.cfi_personality 155, _rust_eh_personality
	.cfi_lsda 16, Lexception0
	sub	sp, sp, #64
	.cfi_def_cfa_offset 64
	stp	x29, x30, [sp, #48]
	add	x29, sp, #48
	.cfi_def_cfa w29, 16
	.cfi_offset w30, -8
	.cfi_offset w29, -16
	mov	x8, x0
	add	x0, sp, #16
	str	x8, [sp, #16]
Ltmp0:
	bl	__ZN3std2rt10lang_start28_$u7b$$u7b$closure$u7d$$u7d$17hef1c1ac2fa91f7baE
	str	w0, [sp, #12]
Ltmp1:
	b	LBB4_3
LBB4_1:
	ldur	x0, [x29, #-16]
	bl	__Unwind_Resume
LBB4_2:
Ltmp2:
	mov	x8, x1
	stur	x0, [x29, #-16]
	stur	w8, [x29, #-8]
	b	LBB4_1
LBB4_3:
	ldr	w0, [sp, #12]
	.cfi_def_cfa wsp, 64
	ldp	x29, x30, [sp, #48]
	add	sp, sp, #64
	.cfi_def_cfa_offset 0
	.cfi_restore w30
	.cfi_restore w29
	ret
Lfunc_end0:
	.cfi_endproc
	.section	__TEXT,__gcc_except_tab
	.p2align	2
GCC_except_table4:
Lexception0:
	.byte	255
	.byte	255
	.byte	1
	.uleb128 Lcst_end0-Lcst_begin0
Lcst_begin0:
	.uleb128 Ltmp0-Lfunc_begin0
	.uleb128 Ltmp1-Ltmp0
	.uleb128 Ltmp2-Lfunc_begin0
	.byte	0
	.uleb128 Ltmp1-Lfunc_begin0
	.uleb128 Lfunc_end0-Ltmp1
	.byte	0
	.byte	0
Lcst_end0:
	.p2align	2

	.section	__TEXT,__text,regular,pure_instructions
	.p2align	2
__ZN4core3ops8function6FnOnce9call_once17hf7a560ef3937f06fE:
	.cfi_startproc
	sub	sp, sp, #32
	.cfi_def_cfa_offset 32
	stp	x29, x30, [sp, #16]
	add	x29, sp, #16
	.cfi_def_cfa w29, 16
	.cfi_offset w30, -8
	.cfi_offset w29, -16
	blr	x0
	.cfi_def_cfa wsp, 32
	ldp	x29, x30, [sp, #16]
	add	sp, sp, #32
	.cfi_def_cfa_offset 0
	.cfi_restore w30
	.cfi_restore w29
	ret
	.cfi_endproc

	.p2align	2
__ZN4core3ptr85drop_in_place$LT$std..rt..lang_start$LT$$LP$$RP$$GT$..$u7b$$u7b$closure$u7d$$u7d$$GT$17hb7ff12a9f4fe140dE:
	.cfi_startproc
	ret
	.cfi_endproc

	.p2align	2
__ZN54_$LT$$LP$$RP$$u20$as$u20$std..process..Termination$GT$6report17hba0918006791e144E:
	.cfi_startproc
	mov	w0, #0
	ret
	.cfi_endproc

	.p2align	2
__ZN4main4main17hd0d97daef3a32cf2E:
	.cfi_startproc
	ret
	.cfi_endproc

	.globl	_main
	.p2align	2
_main:
	.cfi_startproc
	stp	x29, x30, [sp, #-16]!
	.cfi_def_cfa_offset 16
	mov	x29, sp
	.cfi_def_cfa w29, 16
	.cfi_offset w30, -8
	.cfi_offset w29, -16
	mov	x2, x1
	mov	x8, x0
	sxtw	x1, w8
	adrp	x0, __ZN4main4main17hd0d97daef3a32cf2E@PAGE
	add	x0, x0, __ZN4main4main17hd0d97daef3a32cf2E@PAGEOFF
	mov	w3, #0
	bl	__ZN3std2rt10lang_start17hb914d2c8ed180aa5E
	ldp	x29, x30, [sp], #16
	ret
	.cfi_endproc

	.section	__DATA,__const
	.p2align	3
l___unnamed_1:
	.quad	__ZN4core3ptr85drop_in_place$LT$std..rt..lang_start$LT$$LP$$RP$$GT$..$u7b$$u7b$closure$u7d$$u7d$$GT$17hb7ff12a9f4fe140dE
	.asciz	"\b\000\000\000\000\000\000\000\b\000\000\000\000\000\000"
	.quad	__ZN4core3ops8function6FnOnce40call_once$u7b$$u7b$vtable.shim$u7d$$u7d$17hc66c25e2e25345fcE
	.quad	__ZN3std2rt10lang_start28_$u7b$$u7b$closure$u7d$$u7d$17hef1c1ac2fa91f7baE
	.quad	__ZN3std2rt10lang_start28_$u7b$$u7b$closure$u7d$$u7d$17hef1c1ac2fa91f7baE

.subsections_via_symbols
